; Function Attrs: mustprogress uwtable
define hidden void @_ZN3ue217ComponentBoundaryC2ENS0_8BoundaryE(ptr noundef nonnull align 8 dereferenceable(72) %0, i32 noundef %1) unnamed_addr #0 align 2 {
  tail call void @_ZN3ue29ComponentC2Ev(ptr noundef nonnull align 8 dereferenceable(16) %0)
  store ptr getelementptr inbounds nuw inrange(-16, 120) (i8, ptr @_ZTVN3ue217ComponentBoundaryE, i64 16), ptr %0, align 8
  %3 = getelementptr inbounds nuw i8, ptr %0, i64 16
  store i32 %1, ptr %3, align 8
  %4 = getelementptr inbounds nuw i8, ptr %0, i64 20
  %5 = load i32, ptr @_ZN3ue218GlushkovBuildState17POS_UNINITIALIZEDE, align 4
  store i32 %5, ptr %4, align 4
  %6 = getelementptr inbounds nuw i8, ptr %0, i64 24
  tail call void @llvm.memset.p0.i64(ptr noundef nonnull align 8 dereferenceable(48) %6, i8 0, i64 48, i1 false)
  ret void
}